; Function Attrs: mustprogress nofree norecurse nosync nounwind willreturn memory(read, argmem: readwrite, inaccessiblemem: none) uwtable
define internal void @pick_pixel4(ptr noundef readonly captures(none) %0, i32 noundef %1, i32 noundef %2, ptr noundef captures(none) %3, ptr noundef captures(none) %4, ptr noundef captures(none) %5, ptr noundef captures(none) %6) #6 {
  %8 = load i32, ptr %3, align 4, !tbaa !31
  %9 = icmp slt i32 %8, 0
  br i1 %9, label %10, label %20

10:                                               ; preds = %7
  %11 = load ptr, ptr %0, align 8, !tbaa !65
  %12 = getelementptr inbounds nuw i8, ptr %0, i64 64
  %13 = load i32, ptr %12, align 8, !tbaa !31
  %14 = mul nsw i32 %13, %2
  %15 = add nsw i32 %14, %1
  %16 = sext i32 %15 to i64
  %17 = getelementptr inbounds i8, ptr %11, i64 %16
  %18 = load i8, ptr %17, align 1, !tbaa !66
  %19 = zext i8 %18 to i32
  store i32 %19, ptr %3, align 4, !tbaa !31
  br label %20

20:                                               ; preds = %10, %7
  %21 = load i32, ptr %4, align 4, !tbaa !31
  %22 = icmp slt i32 %21, 0
  br i1 %22, label %23, label %34

23:                                               ; preds = %20
  %24 = getelementptr inbounds nuw i8, ptr %0, i64 8
  %25 = load ptr, ptr %24, align 8, !tbaa !65
  %26 = getelementptr inbounds nuw i8, ptr %0, i64 68
  %27 = load i32, ptr %26, align 4, !tbaa !31
  %28 = mul nsw i32 %27, %2
  %29 = add nsw i32 %28, %1
  %30 = sext i32 %29 to i64
  %31 = getelementptr inbounds i8, ptr %25, i64 %30
  %32 = load i8, ptr %31, align 1, !tbaa !66
  %33 = zext i8 %32 to i32
  store i32 %33, ptr %4, align 4, !tbaa !31
  br label %34

34:                                               ; preds = %23, %20
  %35 = load i32, ptr %5, align 4, !tbaa !31
  %36 = icmp slt i32 %35, 0
  br i1 %36, label %37, label %48

37:                                               ; preds = %34
  %38 = getelementptr inbounds nuw i8, ptr %0, i64 16
  %39 = load ptr, ptr %38, align 8, !tbaa !65
  %40 = getelementptr inbounds nuw i8, ptr %0, i64 72
  %41 = load i32, ptr %40, align 8, !tbaa !31
  %42 = mul nsw i32 %41, %2
  %43 = add nsw i32 %42, %1
  %44 = sext i32 %43 to i64
  %45 = getelementptr inbounds i8, ptr %39, i64 %44
  %46 = load i8, ptr %45, align 1, !tbaa !66
  %47 = zext i8 %46 to i32
  store i32 %47, ptr %5, align 4, !tbaa !31
  br label %48

48:                                               ; preds = %37, %34
  %49 = load i32, ptr %6, align 4, !tbaa !31
  %50 = icmp slt i32 %49, 0
  br i1 %50, label %51, label %62

51:                                               ; preds = %48
  %52 = getelementptr inbounds nuw i8, ptr %0, i64 24
  %53 = load ptr, ptr %52, align 8, !tbaa !65
  %54 = getelementptr inbounds nuw i8, ptr %0, i64 76
  %55 = load i32, ptr %54, align 4, !tbaa !31
  %56 = mul nsw i32 %55, %2
  %57 = add nsw i32 %56, %1
  %58 = sext i32 %57 to i64
  %59 = getelementptr inbounds i8, ptr %53, i64 %58
  %60 = load i8, ptr %59, align 1, !tbaa !66
  %61 = zext i8 %60 to i32
  store i32 %61, ptr %6, align 4, !tbaa !31
  br label %62

62:                                               ; preds = %51, %48
  ret void
}